; ModuleID = '51/726.c'
source_filename = "51/726.c"
target datalayout = "e-m:e-p270:32:32-p271:32:32-p272:64:64-i64:64-f80:128-n8:16:32:64-S128"
target triple = "x86_64-pc-linux-gnu"

@.str = private unnamed_addr constant [3 x i8] c"%d\00", align 1
@.str.1 = private unnamed_addr constant [3 x i8] c"%s\00", align 1
@.str.2 = private unnamed_addr constant [3 x i8] c"NO\00", align 1
@.str.3 = private unnamed_addr constant [4 x i8] c"%d\0A\00", align 1
@.str.4 = private unnamed_addr constant [4 x i8] c"%s\0A\00", align 1

; Function Attrs: noinline nounwind uwtable
define dso_local i32 @main() #0 {
  %1 = alloca i32, align 4
  %2 = alloca i32, align 4
  %3 = alloca i32, align 4
  %4 = alloca i32, align 4
  %5 = alloca i32, align 4
  %6 = alloca i32, align 4
  %7 = alloca [500 x i32], align 16
  %8 = alloca i32, align 4
  %9 = alloca i32, align 4
  %10 = alloca [500 x i8], align 16
  %11 = alloca [500 x [5 x i8]], align 16
  store i32 0, i32* %1, align 4
  %12 = bitcast [500 x i32]* %7 to i8*
  call void @llvm.memset.p0i8.i64(i8* align 16 %12, i8 0, i64 2000, i1 false)
  %13 = call i32 (i8*, ...) @__isoc99_scanf(i8* getelementptr inbounds ([3 x i8], [3 x i8]* @.str, i64 0, i64 0), i32* %2)
  %14 = call i32 (i8*, ...) @__isoc99_scanf(i8* getelementptr inbounds ([3 x i8], [3 x i8]* @.str.1, i64 0, i64 0), [500 x i8]* %10)
  %15 = getelementptr inbounds [500 x i8], [500 x i8]* %10, i64 0, i64 0
  %16 = call i64 @strlen(i8* %15) #4
  %17 = trunc i64 %16 to i32
  store i32 %17, i32* %6, align 4
  store i32 0, i32* %5, align 4
  store i32 0, i32* %3, align 4
  br label %18

18:                                               ; preds = %49, %0
  %19 = load i32, i32* %3, align 4
  %20 = load i32, i32* %6, align 4
  %21 = load i32, i32* %2, align 4
  %22 = sub nsw i32 %20, %21
  %23 = icmp sle i32 %19, %22
  br i1 %23, label %24, label %52

24:                                               ; preds = %18
  %25 = load i32, i32* %3, align 4
  store i32 %25, i32* %9, align 4
  store i32 0, i32* %4, align 4
  br label %26

26:                                               ; preds = %41, %24
  %27 = load i32, i32* %4, align 4
  %28 = load i32, i32* %2, align 4
  %29 = icmp slt i32 %27, %28
  br i1 %29, label %30, label %46

30:                                               ; preds = %26
  %31 = load i32, i32* %9, align 4
  %32 = sext i32 %31 to i64
  %33 = getelementptr inbounds [500 x i8], [500 x i8]* %10, i64 0, i64 %32
  %34 = load i8, i8* %33, align 1
  %35 = load i32, i32* %5, align 4
  %36 = sext i32 %35 to i64
  %37 = getelementptr inbounds [500 x [5 x i8]], [500 x [5 x i8]]* %11, i64 0, i64 %36
  %38 = load i32, i32* %4, align 4
  %39 = sext i32 %38 to i64
  %40 = getelementptr inbounds [5 x i8], [5 x i8]* %37, i64 0, i64 %39
  store i8 %34, i8* %40, align 1
  br label %41

41:                                               ; preds = %30
  %42 = load i32, i32* %4, align 4
  %43 = add nsw i32 %42, 1
  store i32 %43, i32* %4, align 4
  %44 = load i32, i32* %9, align 4
  %45 = add nsw i32 %44, 1
  store i32 %45, i32* %9, align 4
  br label %26

46:                                               ; preds = %26
  %47 = load i32, i32* %5, align 4
  %48 = add nsw i32 %47, 1
  store i32 %48, i32* %5, align 4
  br label %49

49:                                               ; preds = %46
  %50 = load i32, i32* %3, align 4
  %51 = add nsw i32 %50, 1
  store i32 %51, i32* %3, align 4
  br label %18

52:                                               ; preds = %18
  store i32 0, i32* %8, align 4
  store i32 0, i32* %3, align 4
  br label %53

53:                                               ; preds = %97, %52
  %54 = load i32, i32* %3, align 4
  %55 = load i32, i32* %5, align 4
  %56 = icmp slt i32 %54, %55
  br i1 %56, label %57, label %100

57:                                               ; preds = %53
  %58 = load i32, i32* %3, align 4
  store i32 %58, i32* %4, align 4
  br label %59

59:                                               ; preds = %81, %57
  %60 = load i32, i32* %4, align 4
  %61 = load i32, i32* %5, align 4
  %62 = icmp slt i32 %60, %61
  br i1 %62, label %63, label %84

63:                                               ; preds = %59
  %64 = load i32, i32* %3, align 4
  %65 = sext i32 %64 to i64
  %66 = getelementptr inbounds [500 x [5 x i8]], [500 x [5 x i8]]* %11, i64 0, i64 %65
  %67 = getelementptr inbounds [5 x i8], [5 x i8]* %66, i64 0, i64 0
  %68 = load i32, i32* %4, align 4
  %69 = sext i32 %68 to i64
  %70 = getelementptr inbounds [500 x [5 x i8]], [500 x [5 x i8]]* %11, i64 0, i64 %69
  %71 = getelementptr inbounds [5 x i8], [5 x i8]* %70, i64 0, i64 0
  %72 = call i32 @strcmp(i8* %67, i8* %71) #4
  %73 = icmp eq i32 %72, 0
  br i1 %73, label %74, label %80

74:                                               ; preds = %63
  %75 = load i32, i32* %3, align 4
  %76 = sext i32 %75 to i64
  %77 = getelementptr inbounds [500 x i32], [500 x i32]* %7, i64 0, i64 %76
  %78 = load i32, i32* %77, align 4
  %79 = add nsw i32 %78, 1
  store i32 %79, i32* %77, align 4
  br label %80

80:                                               ; preds = %74, %63
  br label %81

81:                                               ; preds = %80
  %82 = load i32, i32* %4, align 4
  %83 = add nsw i32 %82, 1
  store i32 %83, i32* %4, align 4
  br label %59

84:                                               ; preds = %59
  %85 = load i32, i32* %3, align 4
  %86 = sext i32 %85 to i64
  %87 = getelementptr inbounds [500 x i32], [500 x i32]* %7, i64 0, i64 %86
  %88 = load i32, i32* %87, align 4
  %89 = load i32, i32* %8, align 4
  %90 = icmp sge i32 %88, %89
  br i1 %90, label %91, label %96

91:                                               ; preds = %84
  %92 = load i32, i32* %3, align 4
  %93 = sext i32 %92 to i64
  %94 = getelementptr inbounds [500 x i32], [500 x i32]* %7, i64 0, i64 %93
  %95 = load i32, i32* %94, align 4
  store i32 %95, i32* %8, align 4
  br label %96

96:                                               ; preds = %91, %84
  br label %97

97:                                               ; preds = %96
  %98 = load i32, i32* %3, align 4
  %99 = add nsw i32 %98, 1
  store i32 %99, i32* %3, align 4
  br label %53

100:                                              ; preds = %53
  %101 = load i32, i32* %8, align 4
  %102 = icmp eq i32 %101, 1
  br i1 %102, label %103, label %105

103:                                              ; preds = %100
  %104 = call i32 (i8*, ...) @printf(i8* getelementptr inbounds ([3 x i8], [3 x i8]* @.str.2, i64 0, i64 0))
  store i32 0, i32* %1, align 4
  br label %129

105:                                              ; preds = %100
  %106 = load i32, i32* %8, align 4
  %107 = call i32 (i8*, ...) @printf(i8* getelementptr inbounds ([4 x i8], [4 x i8]* @.str.3, i64 0, i64 0), i32 %106)
  store i32 0, i32* %3, align 4
  br label %108

108:                                              ; preds = %126, %105
  %109 = load i32, i32* %3, align 4
  %110 = load i32, i32* %5, align 4
  %111 = icmp slt i32 %109, %110
  br i1 %111, label %112, label %129

112:                                              ; preds = %108
  %113 = load i32, i32* %3, align 4
  %114 = sext i32 %113 to i64
  %115 = getelementptr inbounds [500 x i32], [500 x i32]* %7, i64 0, i64 %114
  %116 = load i32, i32* %115, align 4
  %117 = load i32, i32* %8, align 4
  %118 = icmp eq i32 %116, %117
  br i1 %118, label %119, label %125

119:                                              ; preds = %112
  %120 = load i32, i32* %3, align 4
  %121 = sext i32 %120 to i64
  %122 = getelementptr inbounds [500 x [5 x i8]], [500 x [5 x i8]]* %11, i64 0, i64 %121
  %123 = getelementptr inbounds [5 x i8], [5 x i8]* %122, i64 0, i64 0
  %124 = call i32 (i8*, ...) @printf(i8* getelementptr inbounds ([4 x i8], [4 x i8]* @.str.4, i64 0, i64 0), i8* %123)
  br label %125

125:                                              ; preds = %119, %112
  br label %126

126:                                              ; preds = %125
  %127 = load i32, i32* %3, align 4
  %128 = add nsw i32 %127, 1
  store i32 %128, i32* %3, align 4
  br label %108

129:                                              ; preds = %103, %108
  %130 = load i32, i32* %1, align 4
  ret i32 %130
}

; Function Attrs: argmemonly nounwind willreturn
declare void @llvm.memset.p0i8.i64(i8* nocapture writeonly, i8, i64, i1 immarg) #1

declare dso_local i32 @__isoc99_scanf(i8*, ...) #2

; Function Attrs: nounwind readonly
declare dso_local i64 @strlen(i8*) #3

; Function Attrs: nounwind readonly
declare dso_local i32 @strcmp(i8*, i8*) #3

declare dso_local i32 @printf(i8*, ...) #2


!llvm.module.flags = !{!0}
!llvm.ident = !{!1}

!0 = !{i32 1, !"wchar_size", i32 4}
!1 = !{!"clang version 10.0.0-4ubuntu1 "}
