; ModuleID = 'source-C-CXX/50/726.c'
source_filename = "source-C-CXX/50/726.c"
target datalayout = "e-m:e-p270:32:32-p271:32:32-p272:64:64-i64:64-f80:128-n8:16:32:64-S128"
target triple = "x86_64-pc-linux-gnu"

@.str = private unnamed_addr constant [3 x i8] c"%d\00", align 1
@.str.1 = private unnamed_addr constant [3 x i8] c"%s\00", align 1
@.str.2 = private unnamed_addr constant [3 x i8] c"NO\00", align 1
@.str.3 = private unnamed_addr constant [4 x i8] c"%d\0A\00", align 1

; Function Attrs: nofree nounwind sspstrong uwtable
define dso_local i32 @main() local_unnamed_addr #0 {
  %1 = alloca i32, align 4
  %2 = alloca [500 x i32], align 16
  %3 = alloca [500 x i8], align 16
  %4 = alloca [500 x [5 x i8]], align 16
  %5 = bitcast i32* %1 to i8*
  call void @llvm.lifetime.start.p0i8(i64 4, i8* nonnull %5) #7
  %6 = bitcast [500 x i32]* %2 to i8*
  call void @llvm.lifetime.start.p0i8(i64 2000, i8* nonnull %6) #7
  call void @llvm.memset.p0i8.i64(i8* noundef nonnull align 16 dereferenceable(2000) %6, i8 0, i64 2000, i1 false)
  %7 = getelementptr inbounds [500 x i8], [500 x i8]* %3, i64 0, i64 0
  call void @llvm.lifetime.start.p0i8(i64 500, i8* nonnull %7) #7
  %8 = getelementptr inbounds [500 x [5 x i8]], [500 x [5 x i8]]* %4, i64 0, i64 0, i64 0
  call void @llvm.lifetime.start.p0i8(i64 2500, i8* nonnull %8) #7
  %9 = call i32 (i8*, ...) @__isoc99_scanf(i8* getelementptr inbounds ([3 x i8], [3 x i8]* @.str, i64 0, i64 0), i32* nonnull %1)
  %10 = call i32 (i8*, ...) @__isoc99_scanf(i8* getelementptr inbounds ([3 x i8], [3 x i8]* @.str.1, i64 0, i64 0), [500 x i8]* nonnull %3)
  %11 = call i64 @strlen(i8* noundef nonnull %7) #8
  %12 = trunc i64 %11 to i32
  %13 = load i32, i32* %1, align 4, !tbaa !5
  %14 = icmp sgt i32 %13, %12
  br i1 %14, label %85, label %15

15:                                               ; preds = %0
  %16 = icmp sgt i32 %13, 0
  br i1 %16, label %20, label %17

17:                                               ; preds = %15
  %18 = add i32 %12, 1
  %19 = sub i32 %18, %13
  br label %58

20:                                               ; preds = %15
  %21 = zext i32 %13 to i64
  %22 = add i32 %12, 1
  %23 = sub i32 %22, %13
  %24 = zext i32 %23 to i64
  %25 = add nsw i64 %24, -1
  %26 = and i64 %24, 3
  %27 = icmp ult i64 %25, 3
  br i1 %27, label %47, label %28

28:                                               ; preds = %20
  %29 = and i64 %24, 4294967292
  br label %30

30:                                               ; preds = %30, %28
  %31 = phi i64 [ 0, %28 ], [ %44, %30 ]
  %32 = phi i64 [ %29, %28 ], [ %45, %30 ]
  %33 = getelementptr [500 x [5 x i8]], [500 x [5 x i8]]* %4, i64 0, i64 %31, i64 0
  %34 = getelementptr [500 x i8], [500 x i8]* %3, i64 0, i64 %31
  call void @llvm.memcpy.p0i8.p0i8.i64(i8* align 4 %33, i8* align 4 %34, i64 %21, i1 false)
  %35 = or i64 %31, 1
  %36 = getelementptr [500 x [5 x i8]], [500 x [5 x i8]]* %4, i64 0, i64 %35, i64 0
  %37 = getelementptr [500 x i8], [500 x i8]* %3, i64 0, i64 %35
  call void @llvm.memcpy.p0i8.p0i8.i64(i8* align 1 %36, i8* align 1 %37, i64 %21, i1 false)
  %38 = or i64 %31, 2
  %39 = getelementptr [500 x [5 x i8]], [500 x [5 x i8]]* %4, i64 0, i64 %38, i64 0
  %40 = getelementptr [500 x i8], [500 x i8]* %3, i64 0, i64 %38
  call void @llvm.memcpy.p0i8.p0i8.i64(i8* align 2 %39, i8* align 2 %40, i64 %21, i1 false)
  %41 = or i64 %31, 3
  %42 = getelementptr [500 x [5 x i8]], [500 x [5 x i8]]* %4, i64 0, i64 %41, i64 0
  %43 = getelementptr [500 x i8], [500 x i8]* %3, i64 0, i64 %41
  call void @llvm.memcpy.p0i8.p0i8.i64(i8* align 1 %42, i8* align 1 %43, i64 %21, i1 false)
  %44 = add nuw nsw i64 %31, 4
  %45 = add i64 %32, -4
  %46 = icmp eq i64 %45, 0
  br i1 %46, label %47, label %30, !llvm.loop !9

47:                                               ; preds = %30, %20
  %48 = phi i64 [ 0, %20 ], [ %44, %30 ]
  %49 = icmp eq i64 %26, 0
  br i1 %49, label %58, label %50

50:                                               ; preds = %47, %50
  %51 = phi i64 [ %55, %50 ], [ %48, %47 ]
  %52 = phi i64 [ %56, %50 ], [ %26, %47 ]
  %53 = getelementptr [500 x [5 x i8]], [500 x [5 x i8]]* %4, i64 0, i64 %51, i64 0
  %54 = getelementptr [500 x i8], [500 x i8]* %3, i64 0, i64 %51
  call void @llvm.memcpy.p0i8.p0i8.i64(i8* align 1 %53, i8* align 1 %54, i64 %21, i1 false)
  %55 = add nuw nsw i64 %51, 1
  %56 = add i64 %52, -1
  %57 = icmp eq i64 %56, 0
  br i1 %57, label %58, label %50, !llvm.loop !11

58:                                               ; preds = %47, %50, %17
  %59 = phi i32 [ %19, %17 ], [ %23, %50 ], [ %23, %47 ]
  %60 = icmp eq i32 %59, 0
  br i1 %60, label %85, label %61

61:                                               ; preds = %58
  %62 = zext i32 %59 to i64
  br label %63

63:                                               ; preds = %79, %61
  %64 = phi i64 [ 0, %61 ], [ %83, %79 ]
  %65 = phi i32 [ 0, %61 ], [ %82, %79 ]
  %66 = getelementptr inbounds [500 x [5 x i8]], [500 x [5 x i8]]* %4, i64 0, i64 %64, i64 0
  %67 = getelementptr inbounds [500 x i32], [500 x i32]* %2, i64 0, i64 %64
  br label %68

68:                                               ; preds = %63, %76
  %69 = phi i64 [ %64, %63 ], [ %77, %76 ]
  %70 = getelementptr inbounds [500 x [5 x i8]], [500 x [5 x i8]]* %4, i64 0, i64 %69, i64 0
  %71 = call i32 @strcmp(i8* noundef nonnull %66, i8* noundef nonnull %70) #8
  %72 = icmp eq i32 %71, 0
  br i1 %72, label %73, label %76

73:                                               ; preds = %68
  %74 = load i32, i32* %67, align 4, !tbaa !5
  %75 = add nsw i32 %74, 1
  store i32 %75, i32* %67, align 4, !tbaa !5
  br label %76

76:                                               ; preds = %68, %73
  %77 = add nuw nsw i64 %69, 1
  %78 = icmp eq i64 %77, %62
  br i1 %78, label %79, label %68, !llvm.loop !13

79:                                               ; preds = %76
  %80 = load i32, i32* %67, align 4, !tbaa !5
  %81 = icmp slt i32 %80, %65
  %82 = select i1 %81, i32 %65, i32 %80
  %83 = add nuw nsw i64 %64, 1
  %84 = icmp eq i64 %83, %62
  br i1 %84, label %87, label %63, !llvm.loop !14

85:                                               ; preds = %0, %58
  %86 = call i32 (i8*, ...) @printf(i8* nonnull dereferenceable(1) getelementptr inbounds ([4 x i8], [4 x i8]* @.str.3, i64 0, i64 0), i32 0)
  br label %106

87:                                               ; preds = %79
  %88 = icmp eq i32 %82, 1
  br i1 %88, label %89, label %91

89:                                               ; preds = %87
  %90 = call i32 (i8*, ...) @printf(i8* nonnull dereferenceable(1) getelementptr inbounds ([3 x i8], [3 x i8]* @.str.2, i64 0, i64 0))
  br label %106

91:                                               ; preds = %87
  %92 = call i32 (i8*, ...) @printf(i8* nonnull dereferenceable(1) getelementptr inbounds ([4 x i8], [4 x i8]* @.str.3, i64 0, i64 0), i32 %82)
  br i1 %60, label %106, label %93

93:                                               ; preds = %91
  %94 = zext i32 %59 to i64
  br label %95

95:                                               ; preds = %93, %103
  %96 = phi i64 [ 0, %93 ], [ %104, %103 ]
  %97 = getelementptr inbounds [500 x i32], [500 x i32]* %2, i64 0, i64 %96
  %98 = load i32, i32* %97, align 4, !tbaa !5
  %99 = icmp eq i32 %98, %82
  br i1 %99, label %100, label %103

100:                                              ; preds = %95
  %101 = getelementptr inbounds [500 x [5 x i8]], [500 x [5 x i8]]* %4, i64 0, i64 %96, i64 0
  %102 = call i32 @puts(i8* nonnull %101)
  br label %103

103:                                              ; preds = %95, %100
  %104 = add nuw nsw i64 %96, 1
  %105 = icmp eq i64 %104, %94
  br i1 %105, label %106, label %95, !llvm.loop !15

106:                                              ; preds = %103, %85, %91, %89
  call void @llvm.lifetime.end.p0i8(i64 2500, i8* nonnull %8) #7
  call void @llvm.lifetime.end.p0i8(i64 500, i8* nonnull %7) #7
  call void @llvm.lifetime.end.p0i8(i64 2000, i8* nonnull %6) #7
  call void @llvm.lifetime.end.p0i8(i64 4, i8* nonnull %5) #7
  ret i32 0
}

; Function Attrs: argmemonly mustprogress nofree nosync nounwind willreturn
declare void @llvm.lifetime.start.p0i8(i64 immarg, i8* nocapture) #1

; Function Attrs: argmemonly mustprogress nofree nounwind willreturn writeonly
declare void @llvm.memset.p0i8.i64(i8* nocapture writeonly, i8, i64, i1 immarg) #2

; Function Attrs: nofree nounwind
declare noundef i32 @__isoc99_scanf(i8* nocapture noundef readonly, ...) local_unnamed_addr #3

; Function Attrs: argmemonly mustprogress nofree nounwind readonly willreturn
declare i64 @strlen(i8* nocapture) local_unnamed_addr #4

; Function Attrs: argmemonly mustprogress nofree nounwind readonly willreturn
declare i32 @strcmp(i8* nocapture, i8* nocapture) local_unnamed_addr #4

; Function Attrs: nofree nounwind
declare noundef i32 @printf(i8* nocapture noundef readonly, ...) local_unnamed_addr #3

; Function Attrs: argmemonly mustprogress nofree nosync nounwind willreturn
declare void @llvm.lifetime.end.p0i8(i64 immarg, i8* nocapture) #1

; Function Attrs: nofree nounwind
declare noundef i32 @puts(i8* nocapture noundef readonly) local_unnamed_addr #5

; Function Attrs: argmemonly nofree nounwind willreturn
declare void @llvm.memcpy.p0i8.p0i8.i64(i8* noalias nocapture writeonly, i8* noalias nocapture readonly, i64, i1 immarg) #6


!llvm.module.flags = !{!0, !1, !2, !3}
!llvm.ident = !{!4}

!0 = !{i32 1, !"wchar_size", i32 4}
!1 = !{i32 7, !"PIC Level", i32 2}
!2 = !{i32 7, !"PIE Level", i32 2}
!3 = !{i32 7, !"uwtable", i32 1}
!4 = !{!"clang version 13.0.0"}
!5 = !{!6, !6, i64 0}
!6 = !{!"int", !7, i64 0}
!7 = !{!"omnipotent char", !8, i64 0}
!8 = !{!"Simple C/C++ TBAA"}
!9 = distinct !{!9, !10}
!10 = !{!"llvm.loop.mustprogress"}
!11 = distinct !{!11, !12}
!12 = !{!"llvm.loop.unroll.disable"}
!13 = distinct !{!13, !10}
!14 = distinct !{!14, !10}
!15 = distinct !{!15, !10}
